target datalayout = "e-m:e-p270:32:32-p271:32:32-p272:64:64-i64:64-i128:128-f80:128-n8:16:32:64-S128"
target triple = "x86_64-pc-linux-gnu"

%struct.ws_mempbrk_pattern = type { [256 x i8], i8, <2 x i64> }

@pbrk_braces = internal global %struct.ws_mempbrk_pattern zeroinitializer, align 16
@g_ascii_table = external constant ptr, align 8

; Function Attrs: null_pointer_is_valid sspstrong uwtable
define internal i32 @megaco_tvb_skip_wsp(ptr noundef %0, i32 noundef %1) #0 {
  %3 = alloca ptr, align 8
  %4 = alloca i32, align 4
  %5 = alloca i32, align 4
  %6 = alloca i32, align 4
  store ptr %0, ptr %3, align 8
  store i32 %1, ptr %4, align 4
  call void @llvm.lifetime.start.p0(i64 4, ptr %5) #12
  %7 = load i32, ptr %4, align 4
  store i32 %7, ptr %5, align 4
  call void @llvm.lifetime.start.p0(i64 4, ptr %6) #12
  %8 = load ptr, ptr %3, align 8
  %9 = call i32 @tvb_reported_length(ptr noundef %8)
  store i32 %9, ptr %6, align 4
  %10 = load i32, ptr %4, align 4
  store i32 %10, ptr %5, align 4
  br label %11

11:                                               ; preds = %29, %2
  %12 = load i32, ptr %5, align 4
  %13 = load i32, ptr %6, align 4
  %14 = icmp slt i32 %12, %13
  br i1 %14, label %15, label %26

15:                                               ; preds = %11
  %16 = load ptr, ptr @g_ascii_table, align 8
  %17 = load ptr, ptr %3, align 8
  %18 = load i32, ptr %5, align 4
  %19 = call zeroext i8 @tvb_get_uint8(ptr noundef %17, i32 noundef %18)
  %20 = zext i8 %19 to i64
  %21 = getelementptr i16, ptr %16, i64 %20
  %22 = load i16, ptr %21, align 2
  %23 = zext i16 %22 to i32
  %24 = and i32 %23, 256
  %25 = icmp ne i32 %24, 0
  br label %26

26:                                               ; preds = %15, %11
  %27 = phi i1 [ false, %11 ], [ %25, %15 ]
  br i1 %27, label %28, label %32

28:                                               ; preds = %26
  br label %29

29:                                               ; preds = %28
  %30 = load i32, ptr %5, align 4
  %31 = add i32 %30, 1
  store i32 %31, ptr %5, align 4
  br label %11, !llvm.loop !16

32:                                               ; preds = %26
  %33 = load i32, ptr %5, align 4
  call void @llvm.lifetime.end.p0(i64 4, ptr %6) #12
  call void @llvm.lifetime.end.p0(i64 4, ptr %5) #12
  ret i32 %33
}

; Function Attrs: null_pointer_is_valid sspstrong uwtable
define internal i32 @megaco_tvb_find_token(ptr noundef %0, i32 noundef %1, i32 noundef %2) #0 {
  %4 = alloca i32, align 4
  %5 = alloca ptr, align 8
  %6 = alloca i32, align 4
  %7 = alloca i32, align 4
  %8 = alloca i32, align 4
  %9 = alloca i32, align 4
  %10 = alloca i8, align 1
  %11 = alloca i32, align 4
  store ptr %0, ptr %5, align 8
  store i32 %1, ptr %6, align 4
  store i32 %2, ptr %7, align 4
  call void @llvm.lifetime.start.p0(i64 4, ptr %8) #12
  store i32 0, ptr %8, align 4
  call void @llvm.lifetime.start.p0(i64 4, ptr %9) #12
  %12 = load i32, ptr %6, align 4
  store i32 %12, ptr %9, align 4
  call void @llvm.lifetime.start.p0(i64 1, ptr %10) #12
  br label %13

13:                                               ; preds = %33, %3
  %14 = load ptr, ptr %5, align 8
  %15 = load i32, ptr %9, align 4
  %16 = add i32 %15, 1
  %17 = load i32, ptr %7, align 4
  %18 = call i32 @tvb_ws_mempbrk_pattern_uint8(ptr noundef %14, i32 noundef %16, i32 noundef %17, ptr noundef @pbrk_braces, ptr noundef %10)
  store i32 %18, ptr %9, align 4
  %19 = load i32, ptr %9, align 4
  %20 = icmp eq i32 %19, -1
  br i1 %20, label %21, label %22

21:                                               ; preds = %13
  store i32 -1, ptr %4, align 4
  store i32 1, ptr %11, align 4
  br label %46

22:                                               ; preds = %13
  %23 = load i8, ptr %10, align 1
  %24 = zext i8 %23 to i32
  switch i32 %24, label %31 [
    i32 123, label %25
    i32 125, label %28
  ]

25:                                               ; preds = %22
  %26 = load i32, ptr %8, align 4
  %27 = add i32 %26, 1
  store i32 %27, ptr %8, align 4
  br label %32

28:                                               ; preds = %22
  %29 = load i32, ptr %8, align 4
  %30 = add i32 %29, -1
  store i32 %30, ptr %8, align 4
  br label %32

31:                                               ; preds = %22
  br label %32

32:                                               ; preds = %31, %28, %25
  br label %33

33:                                               ; preds = %32
  %34 = load i32, ptr %8, align 4
  %35 = icmp sgt i32 %34, 0
  br i1 %35, label %13, label %36, !llvm.loop !18

36:                                               ; preds = %33
  %37 = load i32, ptr %8, align 4
  %38 = icmp slt i32 %37, 0
  br i1 %38, label %39, label %40

39:                                               ; preds = %36
  store i32 -1, ptr %4, align 4
  store i32 1, ptr %11, align 4
  br label %46

40:                                               ; preds = %36
  %41 = load ptr, ptr %5, align 8
  %42 = load i32, ptr %9, align 4
  %43 = add i32 %42, 1
  %44 = call i32 @megaco_tvb_skip_wsp(ptr noundef %41, i32 noundef %43)
  store i32 %44, ptr %9, align 4
  %45 = load i32, ptr %9, align 4
  store i32 %45, ptr %4, align 4
  store i32 1, ptr %11, align 4
  br label %46

46:                                               ; preds = %40, %39, %21
  call void @llvm.lifetime.end.p0(i64 1, ptr %10) #12
  call void @llvm.lifetime.end.p0(i64 4, ptr %9) #12
  call void @llvm.lifetime.end.p0(i64 4, ptr %8) #12
  %47 = load i32, ptr %4, align 4
  ret i32 %47
}