; Function Attrs: null_pointer_is_valid sspstrong uwtable
define internal fastcc i32 @megaco_tvb_find_token(ptr noundef %0, i32 noundef %1, i32 noundef %2) unnamed_addr #0 {
  %4 = alloca i8, align 1
  call void @llvm.lifetime.start.p0(i64 1, ptr nonnull %4) #11
  br label %5

5:                                                ; preds = %15, %3
  %.012 = phi i32 [ 0, %3 ], [ %.1, %15 ]
  %.0 = phi i32 [ %1, %3 ], [ %7, %15 ]
  %6 = add i32 %.0, 1
  %7 = call i32 @tvb_ws_mempbrk_pattern_uint8(ptr noundef %0, i32 noundef %6, i32 noundef %2, ptr noundef nonnull @pbrk_braces, ptr noundef nonnull %4)
  %8 = icmp eq i32 %7, -1
  br i1 %8, label %megaco_tvb_skip_wsp.exit, label %9

9:                                                ; preds = %5
  %10 = load i8, ptr %4, align 1
  switch i8 %10, label %15 [
    i8 123, label %11
    i8 125, label %13
  ]

11:                                               ; preds = %9
  %12 = add nuw i32 %.012, 1
  br label %15

13:                                               ; preds = %9
  %14 = add nsw i32 %.012, -1
  br label %15

15:                                               ; preds = %11, %13, %9
  %.1 = phi i32 [ %.012, %9 ], [ %14, %13 ], [ %12, %11 ]
  %16 = icmp sgt i32 %.1, 0
  br i1 %16, label %5, label %17, !llvm.loop !13

17:                                               ; preds = %15
  %18 = icmp slt i32 %.1, 0
  br i1 %18, label %megaco_tvb_skip_wsp.exit, label %19

19:                                               ; preds = %17
  %20 = add nuw i32 %7, 1
  %21 = call i32 @tvb_reported_length(ptr noundef %0)
  %22 = icmp slt i32 %20, %21
  br i1 %22, label %.lr.ph.i, label %megaco_tvb_skip_wsp.exit

.lr.ph.i:                                         ; preds = %19
  %23 = load ptr, ptr @g_ascii_table, align 8
  br label %24

24:                                               ; preds = %30, %.lr.ph.i
  %.08.i = phi i32 [ %20, %.lr.ph.i ], [ %31, %30 ]
  %25 = call zeroext i8 @tvb_get_uint8(ptr noundef %0, i32 noundef %.08.i)
  %26 = zext i8 %25 to i64
  %27 = getelementptr i16, ptr %23, i64 %26
  %28 = load i16, ptr %27, align 2
  %29 = and i16 %28, 256
  %.not.i = icmp eq i16 %29, 0
  br i1 %.not.i, label %megaco_tvb_skip_wsp.exit, label %30

30:                                               ; preds = %24
  %31 = add i32 %.08.i, 1
  %exitcond.not.i = icmp eq i32 %31, %21
  br i1 %exitcond.not.i, label %megaco_tvb_skip_wsp.exit, label %24, !llvm.loop !8

megaco_tvb_skip_wsp.exit:                         ; preds = %5, %30, %24, %19, %17
  %.013 = phi i32 [ -1, %17 ], [ %20, %19 ], [ %.08.i, %24 ], [ %21, %30 ], [ -1, %5 ]
  call void @llvm.lifetime.end.p0(i64 1, ptr nonnull %4) #11
  ret i32 %.013
}